target datalayout = "e-m:e-p270:32:32-p271:32:32-p272:64:64-i64:64-i128:128-f80:128-n8:16:32:64-S128"
target triple = "x86_64-pc-linux-gnu"

%struct.TuplesortPublic = type { ptr, ptr, ptr, ptr, ptr, ptr, ptr, ptr, ptr, i8, i32, ptr, ptr, i32, i8, ptr }

@trace_sort = external global i8, align 1
@.str.1 = private unnamed_addr constant [20 x i8] c"tuplesortvariants.c\00", align 1
@.str.4 = private unnamed_addr constant [50 x i8] c"begin index sort: workMem = %d, randomAccess = %c\00", align 1
@__func__.tuplesort_begin_index_brin = private unnamed_addr constant [27 x i8] c"tuplesort_begin_index_brin\00", align 1

; Function Attrs: nounwind uwtable
define dso_local ptr @tuplesort_begin_index_brin(i32 noundef %0, ptr noundef %1, i32 noundef %2) #0 {
  %4 = alloca i32, align 4
  %5 = alloca ptr, align 8
  %6 = alloca i32, align 4
  %7 = alloca ptr, align 8
  %8 = alloca ptr, align 8
  store i32 %0, ptr %4, align 4
  store ptr %1, ptr %5, align 8
  store i32 %2, ptr %6, align 4
  call void @llvm.lifetime.start.p0(i64 8, ptr %7) #6
  %9 = load i32, ptr %4, align 4
  %10 = load ptr, ptr %5, align 8
  %11 = load i32, ptr %6, align 4
  %12 = call ptr @tuplesort_begin_common(i32 noundef %9, ptr noundef %10, i32 noundef %11)
  store ptr %12, ptr %7, align 8
  call void @llvm.lifetime.start.p0(i64 8, ptr %8) #6
  %13 = load ptr, ptr %7, align 8
  store ptr %13, ptr %8, align 8
  %14 = load i8, ptr @trace_sort, align 1, !range !4, !noundef !5
  %15 = trunc i8 %14 to i1
  br i1 %15, label %16, label %32

16:                                               ; preds = %3
  br label %17

17:                                               ; preds = %16
  br i1 false, label %18, label %20

18:                                               ; preds = %17
  %19 = call zeroext i1 @errstart_cold(i32 noundef 15, ptr noundef null) #7
  br i1 %19, label %22, label %29

20:                                               ; preds = %17
  %21 = call zeroext i1 @errstart(i32 noundef 15, ptr noundef null)
  br i1 %21, label %22, label %29

22:                                               ; preds = %20, %18
  %23 = load i32, ptr %4, align 4
  %24 = load i32, ptr %6, align 4
  %25 = and i32 %24, 1
  %26 = icmp ne i32 %25, 0
  %27 = select i1 %26, i32 116, i32 102
  %28 = call i32 (ptr, ...) @errmsg_internal(ptr noundef @.str.4, i32 noundef %23, i32 noundef %27)
  call void @errfinish(ptr noundef @.str.1, i32 noundef 557, ptr noundef @__func__.tuplesort_begin_index_brin)
  br label %29

29:                                               ; preds = %22, %20, %18
  br label %30

30:                                               ; preds = %29
  br label %31

31:                                               ; preds = %30
  br label %32

32:                                               ; preds = %31, %3
  %33 = load ptr, ptr %8, align 8
  %34 = getelementptr inbounds nuw %struct.TuplesortPublic, ptr %33, i32 0, i32 10
  store i32 1, ptr %34, align 4
  %35 = load ptr, ptr %8, align 8
  %36 = getelementptr inbounds nuw %struct.TuplesortPublic, ptr %35, i32 0, i32 2
  store ptr @removeabbrev_index_brin, ptr %36, align 8
  %37 = load ptr, ptr %8, align 8
  %38 = getelementptr inbounds nuw %struct.TuplesortPublic, ptr %37, i32 0, i32 0
  store ptr @comparetup_index_brin, ptr %38, align 8
  %39 = load ptr, ptr %8, align 8
  %40 = getelementptr inbounds nuw %struct.TuplesortPublic, ptr %39, i32 0, i32 3
  store ptr @writetup_index_brin, ptr %40, align 8
  %41 = load ptr, ptr %8, align 8
  %42 = getelementptr inbounds nuw %struct.TuplesortPublic, ptr %41, i32 0, i32 4
  store ptr @readtup_index_brin, ptr %42, align 8
  %43 = load ptr, ptr %8, align 8
  %44 = getelementptr inbounds nuw %struct.TuplesortPublic, ptr %43, i32 0, i32 9
  store i8 1, ptr %44, align 8
  %45 = load ptr, ptr %8, align 8
  %46 = getelementptr inbounds nuw %struct.TuplesortPublic, ptr %45, i32 0, i32 15
  store ptr null, ptr %46, align 8
  %47 = load ptr, ptr %7, align 8
  call void @llvm.lifetime.end.p0(i64 8, ptr %8) #6
  call void @llvm.lifetime.end.p0(i64 8, ptr %7) #6
  ret ptr %47
}