; Function Attrs: nounwind uwtable
define dso_local ptr @tuplesort_begin_index_brin(i32 noundef %0, ptr noundef %1, i32 noundef %2) local_unnamed_addr #0 {
  %4 = tail call ptr @tuplesort_begin_common(i32 noundef %0, ptr noundef %1, i32 noundef %2) #12
  %5 = load i8, ptr @trace_sort, align 1, !range !4, !noundef !5
  %6 = trunc nuw i8 %5 to i1
  br i1 %6, label %7, label %13

7:                                                ; preds = %3
  %8 = tail call zeroext i1 @errstart(i32 noundef 15, ptr noundef null) #12
  br i1 %8, label %9, label %13

9:                                                ; preds = %7
  %10 = and i32 %2, 1
  %.not = icmp eq i32 %10, 0
  %11 = select i1 %.not, i32 102, i32 116
  %12 = tail call i32 (ptr, ...) @errmsg_internal(ptr noundef nonnull @.str.4, i32 noundef %0, i32 noundef %11) #12
  tail call void @errfinish(ptr noundef nonnull @.str.1, i32 noundef 557, ptr noundef nonnull @__func__.tuplesort_begin_index_brin) #12
  br label %13

13:                                               ; preds = %7, %9, %3
  %14 = getelementptr inbounds nuw i8, ptr %4, i64 76
  store i32 1, ptr %14, align 4
  %15 = getelementptr inbounds nuw i8, ptr %4, i64 16
  store ptr @removeabbrev_index_brin, ptr %15, align 8
  store ptr @comparetup_index_brin, ptr %4, align 8
  %16 = getelementptr inbounds nuw i8, ptr %4, i64 24
  store ptr @writetup_index_brin, ptr %16, align 8
  %17 = getelementptr inbounds nuw i8, ptr %4, i64 32
  store ptr @readtup_index_brin, ptr %17, align 8
  %18 = getelementptr inbounds nuw i8, ptr %4, i64 72
  store i8 1, ptr %18, align 8
  %19 = getelementptr inbounds nuw i8, ptr %4, i64 104
  store ptr null, ptr %19, align 8
  ret ptr %4
}